; Function Attrs: mustprogress uwtable
define void @_ZNK3gmx19TopologyInformation6getBoxEPA3_f(ptr nocapture noundef nonnull readonly align 8 dereferenceable(128) %0, ptr noundef writeonly %1) local_unnamed_addr #7 align 2 {
  %.not = icmp eq ptr %1, null
  br i1 %.not, label %.split, label %.split3

.split3:                                          ; preds = %2
  %3 = getelementptr inbounds i8, ptr %0, i64 88
  %4 = load float, ptr %3, align 8
  store float %4, ptr %1, align 4
  %5 = getelementptr inbounds i8, ptr %0, i64 92
  %6 = load float, ptr %5, align 4
  %7 = getelementptr inbounds i8, ptr %1, i64 4
  store float %6, ptr %7, align 4
  %8 = getelementptr inbounds i8, ptr %0, i64 96
  %9 = load float, ptr %8, align 8
  %10 = getelementptr inbounds i8, ptr %1, i64 8
  store float %9, ptr %10, align 4
  %11 = getelementptr inbounds i8, ptr %0, i64 100
  %12 = getelementptr inbounds i8, ptr %1, i64 12
  %13 = load float, ptr %11, align 4
  store float %13, ptr %12, align 4
  %14 = getelementptr inbounds i8, ptr %0, i64 104
  %15 = load float, ptr %14, align 8
  %16 = getelementptr inbounds i8, ptr %1, i64 16
  store float %15, ptr %16, align 4
  %17 = getelementptr inbounds i8, ptr %0, i64 108
  %18 = load float, ptr %17, align 4
  %19 = getelementptr inbounds i8, ptr %1, i64 20
  store float %18, ptr %19, align 4
  %20 = getelementptr inbounds i8, ptr %0, i64 112
  %21 = getelementptr inbounds i8, ptr %1, i64 24
  %22 = load float, ptr %20, align 8
  store float %22, ptr %21, align 4
  %23 = getelementptr inbounds i8, ptr %0, i64 116
  %24 = load float, ptr %23, align 4
  %25 = getelementptr inbounds i8, ptr %1, i64 28
  store float %24, ptr %25, align 4
  %26 = getelementptr inbounds i8, ptr %0, i64 120
  %27 = load float, ptr %26, align 8
  %28 = getelementptr inbounds i8, ptr %1, i64 32
  store float %27, ptr %28, align 4
  ret void

.split:                                           ; preds = %2
  tail call void @_ZN3gmx8internal13assertHandlerEPKcS2_S2_S2_i(ptr noundef nonnull @.str.7, ptr noundef nonnull @.str.8, ptr noundef nonnull @"__PRETTY_FUNCTION__._ZZNK3gmx19TopologyInformation6getBoxEPA3_fENK3$_0clEv", ptr noundef nonnull @.str.1, i32 noundef 169) #19
  unreachable
}